; Function Attrs: nounwind uwtable
define internal i32 @SpoolssEndPagePrinter_q(ptr noundef %0, i32 noundef %1, ptr noundef %2, ptr noundef %3, ptr noundef %4, ptr noundef %5) #0 {
  %7 = alloca %struct._e_ctx_hnd, align 4
  %8 = alloca ptr, align 8
  %9 = load i32, ptr @hf_hnd, align 4
  %10 = call i32 @dissect_nt_policy_hnd(ptr noundef %0, i32 noundef %1, ptr noundef %2, ptr noundef %3, ptr noundef %4, ptr noundef %5, i32 noundef %9, ptr noundef nonnull %7, ptr noundef null, i32 noundef 0, i32 noundef 0) #5
  %11 = getelementptr inbounds nuw i8, ptr %2, i64 20
  %12 = load i32, ptr %11, align 4
  %13 = call i32 @dcerpc_fetch_polhnd_data(ptr noundef nonnull %7, ptr noundef nonnull %8, ptr noundef null, ptr noundef null, ptr noundef null, i32 noundef %12) #5
  %14 = load ptr, ptr %8, align 8
  %.not = icmp eq ptr %14, null
  br i1 %.not, label %18, label %15

15:                                               ; preds = %6
  %16 = getelementptr inbounds nuw i8, ptr %2, i64 8
  %17 = load ptr, ptr %16, align 8
  call void (ptr, i32, ptr, ...) @col_append_fstr(ptr noundef %17, i32 noundef 25, ptr noundef nonnull @.str.1228, ptr noundef nonnull %14) #5
  br label %18

18:                                               ; preds = %15, %6
  ret i32 %10
}